target datalayout = "e-m:e-p270:32:32-p271:32:32-p272:64:64-i64:64-i128:128-f80:128-n8:16:32:64-S128"
target triple = "x86_64-unknown-linux-gnu"

%struct._GSourceFuncs = type { ptr, ptr, ptr, ptr, ptr, ptr }
%struct.QIOChannelTLS = type { %struct.QIOChannel, ptr, ptr, i32, i32 }
%struct.QIOChannel = type { %struct.Object, i32, ptr, ptr, ptr, ptr, ptr, i8 }
%struct.Object = type { ptr, ptr, ptr, i32, ptr }
%struct.QIOChannelTLSSource = type { %struct._GSource, ptr }
%struct._GSource = type { ptr, ptr, ptr, i32, ptr, i32, i32, i32, ptr, ptr, ptr, ptr, ptr }

@.str = private unnamed_addr constant [16 x i8] c"qio-channel-tls\00", align 1
@.str.1 = private unnamed_addr constant [103 x i8] c"/home/dtcxzyw/WorkSpace/Projects/compilers/llvm-opt-benchmark/bench/qemu/qemu/include/io/channel-tls.h\00", align 1
@__func__.QIO_CHANNEL_TLS = private unnamed_addr constant [16 x i8] c"QIO_CHANNEL_TLS\00", align 1
@qio_channel_tls_source_funcs = internal global %struct._GSourceFuncs { ptr @qio_channel_tls_source_prepare, ptr @qio_channel_tls_source_check, ptr @qio_channel_tls_source_dispatch, ptr @qio_channel_tls_source_finalize, ptr null, ptr null }, align 8

; Function Attrs: nounwind sspstrong uwtable
define internal void @qio_channel_tls_read_watch(ptr noundef %tioc, ptr noundef %source) #0 {
entry:
  %tioc.addr = alloca ptr, align 8
  %source.addr = alloca ptr, align 8
  %child = alloca ptr, align 8
  %tlssource = alloca ptr, align 8
  store ptr %tioc, ptr %tioc.addr, align 8
  store ptr %source, ptr %source.addr, align 8
  %call = call ptr @g_source_new(ptr noundef @qio_channel_tls_source_funcs, i32 noundef 104)
  store ptr %call, ptr %child, align 8
  %0 = load ptr, ptr %child, align 8
  store ptr %0, ptr %tlssource, align 8
  %1 = load ptr, ptr %tioc.addr, align 8
  %2 = load ptr, ptr %tlssource, align 8
  %tioc1 = getelementptr inbounds %struct.QIOChannelTLSSource, ptr %2, i32 0, i32 1
  store ptr %1, ptr %tioc1, align 8
  %3 = load ptr, ptr %tioc.addr, align 8
  %call2 = call ptr @object_ref(ptr noundef %3)
  %4 = load ptr, ptr %source.addr, align 8
  %5 = load ptr, ptr %child, align 8
  call void @g_source_add_child_source(ptr noundef %4, ptr noundef %5)
  %6 = load ptr, ptr %child, align 8
  call void @g_source_unref(ptr noundef %6)
  ret void
}

; Function Attrs: nounwind sspstrong uwtable
define internal ptr @QIO_CHANNEL_TLS(ptr noundef %obj) #0 {
entry:
  %obj.addr = alloca ptr, align 8
  store ptr %obj, ptr %obj.addr, align 8
  %0 = load ptr, ptr %obj.addr, align 8
  %call = call ptr @object_dynamic_cast_assert(ptr noundef %0, ptr noundef @.str, ptr noundef @.str.1, i32 noundef 30, ptr noundef @__func__.QIO_CHANNEL_TLS)
  ret ptr %call
}

; Function Attrs: nounwind sspstrong uwtable
define internal ptr @qio_channel_tls_create_watch(ptr noundef %ioc, i32 noundef %condition) #0 {
entry:
  %ioc.addr = alloca ptr, align 8
  %condition.addr = alloca i32, align 4
  %tioc = alloca ptr, align 8
  %source = alloca ptr, align 8
  store ptr %ioc, ptr %ioc.addr, align 8
  store i32 %condition, ptr %condition.addr, align 4
  %0 = load ptr, ptr %ioc.addr, align 8
  %call = call ptr @QIO_CHANNEL_TLS(ptr noundef %0)
  store ptr %call, ptr %tioc, align 8
  %1 = load ptr, ptr %tioc, align 8
  %master = getelementptr inbounds %struct.QIOChannelTLS, ptr %1, i32 0, i32 1
  %2 = load ptr, ptr %master, align 8
  %3 = load i32, ptr %condition.addr, align 4
  %call1 = call ptr @qio_channel_create_watch(ptr noundef %2, i32 noundef %3)
  store ptr %call1, ptr %source, align 8
  %4 = load i32, ptr %condition.addr, align 4
  %and = and i32 %4, 1
  %tobool = icmp ne i32 %and, 0
  br i1 %tobool, label %if.then, label %if.end

if.then:                                          ; preds = %entry
  %5 = load ptr, ptr %tioc, align 8
  %6 = load ptr, ptr %source, align 8
  call void @qio_channel_tls_read_watch(ptr noundef %5, ptr noundef %6)
  br label %if.end

if.end:                                           ; preds = %if.then, %entry
  %7 = load ptr, ptr %source, align 8
  ret ptr %7
}