; Function Attrs: nounwind sspstrong uwtable
define internal ptr @qio_channel_tls_create_watch(ptr noundef %ioc, i32 noundef %condition) #0 {
entry:
  %call.i = tail call ptr @object_dynamic_cast_assert(ptr noundef %ioc, ptr noundef nonnull @.str, ptr noundef nonnull @.str.1, i32 noundef 30, ptr noundef nonnull @__func__.QIO_CHANNEL_TLS) #8
  %master = getelementptr inbounds nuw i8, ptr %call.i, i64 96
  %0 = load ptr, ptr %master, align 8
  %call1 = tail call ptr @qio_channel_create_watch(ptr noundef %0, i32 noundef %condition) #8
  %and = and i32 %condition, 1
  %tobool.not = icmp eq i32 %and, 0
  br i1 %tobool.not, label %if.end, label %if.then

if.then:                                          ; preds = %entry
  %call.i4 = tail call ptr @g_source_new(ptr noundef nonnull @qio_channel_tls_source_funcs, i32 noundef 104) #8
  %tioc1.i = getelementptr inbounds nuw i8, ptr %call.i4, i64 96
  store ptr %call.i, ptr %tioc1.i, align 8
  %call2.i = tail call ptr @object_ref(ptr noundef nonnull %call.i) #8
  tail call void @g_source_add_child_source(ptr noundef %call1, ptr noundef %call.i4) #8
  tail call void @g_source_unref(ptr noundef %call.i4) #8
  br label %if.end

if.end:                                           ; preds = %if.then, %entry
  ret ptr %call1
}